target datalayout = "e-m:e-p270:32:32-p271:32:32-p272:64:64-i64:64-i128:128-f80:128-n8:16:32:64-S128"
target triple = "x86_64-pc-linux-gnu"

%"class.std::__cxx11::basic_string" = type { %"struct.std::__cxx11::basic_string<char>::_Alloc_hider", i64, %union.anon }
%"struct.std::__cxx11::basic_string<char>::_Alloc_hider" = type { ptr }
%union.anon = type { i64, [8 x i8] }

; Function Attrs: alwaysinline mustprogress nounwind uwtable
define internal noundef signext i8 @_ZL9myislowerc(i8 noundef signext %0) #8 {
  %2 = alloca i8, align 1
  store i8 %0, ptr %2, align 1
  %3 = load i8, ptr %2, align 1
  %4 = sext i8 %3 to i32
  %5 = icmp sge i32 %4, 97
  br i1 %5, label %6, label %10

6:                                                ; preds = %1
  %7 = load i8, ptr %2, align 1
  %8 = sext i8 %7 to i32
  %9 = icmp sle i32 %8, 122
  br label %10

10:                                               ; preds = %6, %1
  %11 = phi i1 [ false, %1 ], [ %9, %6 ]
  %12 = zext i1 %11 to i8
  ret i8 %12
}

; Function Attrs: alwaysinline mustprogress uwtable
define internal noundef signext i8 @_ZL9mytoupperc(i8 noundef signext %0) #4 {
  %2 = alloca i8, align 1
  %3 = alloca i8, align 1
  store i8 %0, ptr %3, align 1
  %4 = load i8, ptr %3, align 1
  %5 = call noundef signext i8 @_ZL9myislowerc(i8 noundef signext %4)
  %6 = icmp ne i8 %5, 0
  br i1 %6, label %7, label %12

7:                                                ; preds = %1
  %8 = load i8, ptr %3, align 1
  %9 = sext i8 %8 to i32
  %10 = sub nsw i32 %9, 32
  %11 = trunc i32 %10 to i8
  store i8 %11, ptr %2, align 1
  br label %14

12:                                               ; preds = %1
  %13 = load i8, ptr %3, align 1
  store i8 %13, ptr %2, align 1
  br label %14

14:                                               ; preds = %12, %7
  %15 = load i8, ptr %2, align 1
  ret i8 %15
}

; Function Attrs: mustprogress nounwind uwtable
define available_externally noundef ptr @_ZNKSt7__cxx1112basic_stringIcSt11char_traitsIcESaIcEE7_M_dataEv(ptr noundef nonnull align 8 dereferenceable(32) %0) #2 align 2 {
  %2 = alloca ptr, align 8
  store ptr %0, ptr %2, align 8
  %3 = load ptr, ptr %2, align 8
  %4 = getelementptr inbounds nuw %"class.std::__cxx11::basic_string", ptr %3, i32 0, i32 0
  %5 = getelementptr inbounds nuw %"struct.std::__cxx11::basic_string<char>::_Alloc_hider", ptr %4, i32 0, i32 0
  %6 = load ptr, ptr %5, align 8
  ret ptr %6
}

; Function Attrs: mustprogress uwtable
define hidden noundef i32 @_ZN3ue23cmpEPKcS1_mb(ptr noundef %0, ptr noundef %1, i64 noundef %2, i1 noundef zeroext %3) #0 {
  %5 = alloca i32, align 4
  %6 = alloca ptr, align 8
  %7 = alloca ptr, align 8
  %8 = alloca i64, align 8
  %9 = alloca i8, align 1
  %10 = alloca ptr, align 8
  %11 = alloca i32, align 4
  store ptr %0, ptr %6, align 8
  store ptr %1, ptr %7, align 8
  store i64 %2, ptr %8, align 8
  %12 = zext i1 %3 to i8
  store i8 %12, ptr %9, align 1
  %13 = load i8, ptr %9, align 1, !range !5, !noundef !6
  %14 = trunc i8 %13 to i1
  br i1 %14, label %20, label %15

15:                                               ; preds = %4
  %16 = load ptr, ptr %6, align 8
  %17 = load ptr, ptr %7, align 8
  %18 = load i64, ptr %8, align 8
  %19 = call i32 @memcmp(ptr noundef %16, ptr noundef %17, i64 noundef %18) #18
  store i32 %19, ptr %5, align 4
  br label %49

20:                                               ; preds = %4
  call void @llvm.lifetime.start.p0(i64 8, ptr %10) #17
  %21 = load ptr, ptr %6, align 8
  %22 = load i64, ptr %8, align 8
  %23 = getelementptr inbounds nuw i8, ptr %21, i64 %22
  store ptr %23, ptr %10, align 8
  br label %24

24:                                               ; preds = %41, %20
  %25 = load ptr, ptr %6, align 8
  %26 = load ptr, ptr %10, align 8
  %27 = icmp ult ptr %25, %26
  br i1 %27, label %29, label %28

28:                                               ; preds = %24
  store i32 2, ptr %11, align 4
  br label %46

29:                                               ; preds = %24
  %30 = load ptr, ptr %6, align 8
  %31 = load i8, ptr %30, align 1
  %32 = call noundef signext i8 @_ZL9mytoupperc(i8 noundef signext %31)
  %33 = sext i8 %32 to i32
  %34 = load ptr, ptr %7, align 8
  %35 = load i8, ptr %34, align 1
  %36 = call noundef signext i8 @_ZL9mytoupperc(i8 noundef signext %35)
  %37 = sext i8 %36 to i32
  %38 = icmp ne i32 %33, %37
  br i1 %38, label %39, label %40

39:                                               ; preds = %29
  store i32 1, ptr %5, align 4
  store i32 1, ptr %11, align 4
  br label %46

40:                                               ; preds = %29
  br label %41

41:                                               ; preds = %40
  %42 = load ptr, ptr %6, align 8
  %43 = getelementptr inbounds nuw i8, ptr %42, i32 1
  store ptr %43, ptr %6, align 8
  %44 = load ptr, ptr %7, align 8
  %45 = getelementptr inbounds nuw i8, ptr %44, i32 1
  store ptr %45, ptr %7, align 8
  br label %24, !llvm.loop !10

46:                                               ; preds = %39, %28
  call void @llvm.lifetime.end.p0(i64 8, ptr %10) #17
  %47 = load i32, ptr %11, align 4
  switch i32 %47, label %51 [
    i32 2, label %48
    i32 1, label %49
  ]

48:                                               ; preds = %46
  store i32 0, ptr %5, align 4
  br label %49

49:                                               ; preds = %48, %46, %15
  %50 = load i32, ptr %5, align 4
  ret i32 %50

51:                                               ; preds = %46
  unreachable
}

; Function Attrs: mustprogress nounwind uwtable
define available_externally noundef ptr @_ZNKSt7__cxx1112basic_stringIcSt11char_traitsIcESaIcEE5c_strEv(ptr noundef nonnull align 8 dereferenceable(32) %0) #2 align 2 {
  %2 = alloca ptr, align 8
  store ptr %0, ptr %2, align 8
  %3 = load ptr, ptr %2, align 8
  %4 = call noundef ptr @_ZNKSt7__cxx1112basic_stringIcSt11char_traitsIcESaIcEE7_M_dataEv(ptr noundef nonnull align 8 dereferenceable(32) %3)
  ret ptr %4
}

; Function Attrs: mustprogress nounwind uwtable
define available_externally noundef i64 @_ZNKSt7__cxx1112basic_stringIcSt11char_traitsIcESaIcEE6lengthEv(ptr noundef nonnull align 8 dereferenceable(32) %0) #2 align 2 {
  %2 = alloca ptr, align 8
  store ptr %0, ptr %2, align 8
  %3 = load ptr, ptr %2, align 8
  %4 = getelementptr inbounds nuw %"class.std::__cxx11::basic_string", ptr %3, i32 0, i32 1
  %5 = load i64, ptr %4, align 8
  ret i64 %5
}

; Function Attrs: mustprogress uwtable
define hidden noundef i64 @_ZN3ue220maxStringSelfOverlapERKNSt7__cxx1112basic_stringIcSt11char_traitsIcESaIcEEEb(ptr noundef nonnull align 8 dereferenceable(32) %0, i1 noundef zeroext %1) #0 {
  %3 = alloca ptr, align 8
  %4 = alloca i8, align 1
  %5 = alloca i64, align 8
  %6 = alloca ptr, align 8
  %7 = alloca ptr, align 8
  %8 = alloca ptr, align 8
  %9 = alloca i64, align 8
  store ptr %0, ptr %3, align 8
  %10 = zext i1 %1 to i8
  store i8 %10, ptr %4, align 1
  call void @llvm.lifetime.start.p0(i64 8, ptr %5) #17
  %11 = load ptr, ptr %3, align 8
  %12 = call noundef i64 @_ZNKSt7__cxx1112basic_stringIcSt11char_traitsIcESaIcEE6lengthEv(ptr noundef nonnull align 8 dereferenceable(32) %11) #17
  store i64 %12, ptr %5, align 8
  call void @llvm.lifetime.start.p0(i64 8, ptr %6) #17
  %13 = load ptr, ptr %3, align 8
  %14 = call noundef ptr @_ZNKSt7__cxx1112basic_stringIcSt11char_traitsIcESaIcEE5c_strEv(ptr noundef nonnull align 8 dereferenceable(32) %13) #17
  store ptr %14, ptr %6, align 8
  call void @llvm.lifetime.start.p0(i64 8, ptr %7) #17
  %15 = load ptr, ptr %3, align 8
  %16 = call noundef ptr @_ZNKSt7__cxx1112basic_stringIcSt11char_traitsIcESaIcEE5c_strEv(ptr noundef nonnull align 8 dereferenceable(32) %15) #17
  store ptr %16, ptr %7, align 8
  call void @llvm.lifetime.start.p0(i64 8, ptr %8) #17
  %17 = load ptr, ptr %6, align 8
  %18 = load i64, ptr %5, align 8
  %19 = getelementptr inbounds nuw i8, ptr %17, i64 %18
  store ptr %19, ptr %8, align 8
  call void @llvm.lifetime.start.p0(i64 8, ptr %9) #17
  %20 = load i64, ptr %5, align 8
  %21 = sub i64 %20, 1
  store i64 %21, ptr %9, align 8
  br label %22

22:                                               ; preds = %39, %2
  %23 = load i64, ptr %9, align 8
  %24 = icmp ne i64 %23, 0
  br i1 %24, label %25, label %36

25:                                               ; preds = %22
  %26 = load ptr, ptr %8, align 8
  %27 = load i64, ptr %9, align 8
  %28 = sub i64 0, %27
  %29 = getelementptr inbounds i8, ptr %26, i64 %28
  %30 = load ptr, ptr %7, align 8
  %31 = load i64, ptr %9, align 8
  %32 = load i8, ptr %4, align 1, !range !5, !noundef !6
  %33 = trunc i8 %32 to i1
  %34 = call noundef i32 @_ZN3ue23cmpEPKcS1_mb(ptr noundef %29, ptr noundef %30, i64 noundef %31, i1 noundef zeroext %33)
  %35 = icmp ne i32 %34, 0
  br label %36

36:                                               ; preds = %25, %22
  %37 = phi i1 [ false, %22 ], [ %35, %25 ]
  br i1 %37, label %38, label %42

38:                                               ; preds = %36
  br label %39

39:                                               ; preds = %38
  %40 = load i64, ptr %9, align 8
  %41 = add i64 %40, -1
  store i64 %41, ptr %9, align 8
  br label %22, !llvm.loop !11

42:                                               ; preds = %36
  %43 = load i64, ptr %9, align 8
  call void @llvm.lifetime.end.p0(i64 8, ptr %9) #17
  call void @llvm.lifetime.end.p0(i64 8, ptr %8) #17
  call void @llvm.lifetime.end.p0(i64 8, ptr %7) #17
  call void @llvm.lifetime.end.p0(i64 8, ptr %6) #17
  call void @llvm.lifetime.end.p0(i64 8, ptr %5) #17
  ret i64 %43
}