; Function Attrs: mustprogress nofree nounwind willreturn memory(read, inaccessiblemem: none) uwtable
define hidden noundef i64 @_ZN3ue220maxStringSelfOverlapERKNSt7__cxx1112basic_stringIcSt11char_traitsIcESaIcEEEb(ptr noundef nonnull readonly align 8 captures(none) dereferenceable(32) %0, i1 noundef zeroext %1) local_unnamed_addr #2 {
  %3 = getelementptr inbounds nuw i8, ptr %0, i64 8
  %4 = load i64, ptr %3, align 8
  %5 = load ptr, ptr %0, align 8
  %6 = getelementptr inbounds nuw i8, ptr %5, i64 %4
  %.020 = add i64 %4, -1
  %.not21 = icmp eq i64 %.020, 0
  br i1 %.not21, label %.critedge, label %.lr.ph

.lr.ph:                                           ; preds = %2
  br i1 %1, label %.lr.ph.i.preheader.us, label %_ZN3ue23cmpEPKcS1_mb.exit

.lr.ph.i.preheader.us:                            ; preds = %.lr.ph, %.critedge16.loopexit.us
  %.023.us = phi i64 [ %.0.us, %.critedge16.loopexit.us ], [ %.020, %.lr.ph ]
  %.0.in22.us = phi i64 [ %.023.us, %.critedge16.loopexit.us ], [ %4, %.lr.ph ]
  %7 = sub i64 1, %.0.in22.us
  %8 = getelementptr inbounds i8, ptr %6, i64 %7
  br label %.lr.ph.i.us

.lr.ph.i.us:                                      ; preds = %.lr.ph.i.preheader.us, %17
  %.01421.i.us = phi ptr [ %18, %17 ], [ %8, %.lr.ph.i.preheader.us ]
  %.01520.i.us = phi ptr [ %19, %17 ], [ %5, %.lr.ph.i.preheader.us ]
  %9 = load i8, ptr %.01421.i.us, align 1
  %10 = add i8 %9, -123
  %11 = icmp ult i8 %10, -26
  %12 = add i8 %9, -32
  %.0.i17.i.us = select i1 %11, i8 %9, i8 %12
  %13 = load i8, ptr %.01520.i.us, align 1
  %14 = add i8 %13, -123
  %15 = icmp ult i8 %14, -26
  %16 = add i8 %13, -32
  %.0.i.i.us = select i1 %15, i8 %13, i8 %16
  %.not.i.us = icmp eq i8 %.0.i17.i.us, %.0.i.i.us
  br i1 %.not.i.us, label %17, label %.critedge16.loopexit.us

17:                                               ; preds = %.lr.ph.i.us
  %18 = getelementptr inbounds nuw i8, ptr %.01421.i.us, i64 1
  %19 = getelementptr inbounds nuw i8, ptr %.01520.i.us, i64 1
  %.not18.i.us = icmp ult ptr %18, %6
  br i1 %.not18.i.us, label %.lr.ph.i.us, label %.critedge, !llvm.loop !5

.critedge16.loopexit.us:                          ; preds = %.lr.ph.i.us
  %.0.us = add i64 %.023.us, -1
  %.not.us = icmp eq i64 %.0.us, 0
  br i1 %.not.us, label %.critedge, label %.lr.ph.i.preheader.us, !llvm.loop !10

_ZN3ue23cmpEPKcS1_mb.exit:                        ; preds = %.lr.ph, %.critedge16.backedge
  %.023 = phi i64 [ %.0, %.critedge16.backedge ], [ %.020, %.lr.ph ]
  %.0.in22 = phi i64 [ %.023, %.critedge16.backedge ], [ %4, %.lr.ph ]
  %20 = sub i64 1, %.0.in22
  %21 = getelementptr inbounds i8, ptr %6, i64 %20
  %bcmp = tail call i32 @bcmp(ptr %21, ptr %5, i64 %.023)
  %22 = icmp eq i32 %bcmp, 0
  br i1 %22, label %.critedge, label %.critedge16.backedge

.critedge16.backedge:                             ; preds = %_ZN3ue23cmpEPKcS1_mb.exit
  %.0 = add i64 %.023, -1
  %.not = icmp eq i64 %.0, 0
  br i1 %.not, label %.critedge, label %_ZN3ue23cmpEPKcS1_mb.exit, !llvm.loop !10

.critedge:                                        ; preds = %_ZN3ue23cmpEPKcS1_mb.exit, %.critedge16.backedge, %.critedge16.loopexit.us, %17, %2
  %.019 = phi i64 [ 0, %2 ], [ %.023.us, %17 ], [ 0, %.critedge16.loopexit.us ], [ %.023, %_ZN3ue23cmpEPKcS1_mb.exit ], [ 0, %.critedge16.backedge ]
  ret i64 %.019
}